target datalayout = "e-m:e-p270:32:32-p271:32:32-p272:64:64-i64:64-i128:128-f80:128-n8:16:32:64-S128"
target triple = "x86_64-pc-linux-gnu"

@H5_libinit_g = external global i8, align 1
@H5_libterm_g = external global i8, align 1
@.str = private unnamed_addr constant [97 x i8] c"generated/home/dtcxzyw/WorkSpace/Projects/compilers/llvm-opt-benchmark/bench/hdf5/hdf5/src/H5P.c\00", align 1
@H5E_FUNC_g = external global i64, align 8
@H5E_CANTINIT_g = external global i64, align 8
@.str.1 = private unnamed_addr constant [30 x i8] c"library initialization failed\00", align 1
@H5E_CANTSET_g = external global i64, align 8
@.str.2 = private unnamed_addr constant [22 x i8] c"can't set API context\00", align 1
@H5E_ARGS_g = external global i64, align 8
@H5E_BADTYPE_g = external global i64, align 8
@H5E_PLIST_g = external global i64, align 8
@H5E_CANTREGISTER_g = external global i64, align 8
@.str.7 = private unnamed_addr constant [39 x i8] c"unable to register property list class\00", align 1
@__func__.H5Pcreate_class = private unnamed_addr constant [16 x i8] c"H5Pcreate_class\00", align 1
@.str.8 = private unnamed_addr constant [26 x i8] c"not a property list class\00", align 1
@H5E_BADVALUE_g = external global i64, align 8
@.str.9 = private unnamed_addr constant [19 x i8] c"invalid class name\00", align 1
@.str.10 = private unnamed_addr constant [41 x i8] c"data specified, but no callback provided\00", align 1
@.str.11 = private unnamed_addr constant [28 x i8] c"can't retrieve parent class\00", align 1
@H5E_CANTCREATE_g = external global i64, align 8
@.str.12 = private unnamed_addr constant [37 x i8] c"unable to create property list class\00", align 1

; Function Attrs: nounwind uwtable
define i64 @H5Pcreate_class(i64 noundef %0, ptr noundef %1, ptr noundef %2, ptr noundef %3, ptr noundef %4, ptr noundef %5, ptr noundef %6, ptr noundef %7) #0 {
  %9 = alloca i64, align 8
  %10 = alloca ptr, align 8
  %11 = alloca ptr, align 8
  %12 = alloca ptr, align 8
  %13 = alloca ptr, align 8
  %14 = alloca ptr, align 8
  %15 = alloca ptr, align 8
  %16 = alloca ptr, align 8
  %17 = alloca ptr, align 8
  %18 = alloca ptr, align 8
  %19 = alloca i64, align 8
  %20 = alloca i8, align 1
  %21 = alloca i8, align 1
  store i64 %0, ptr %9, align 8
  store ptr %1, ptr %10, align 8
  store ptr %2, ptr %11, align 8
  store ptr %3, ptr %12, align 8
  store ptr %4, ptr %13, align 8
  store ptr %5, ptr %14, align 8
  store ptr %6, ptr %15, align 8
  store ptr %7, ptr %16, align 8
  store ptr null, ptr %17, align 8
  store ptr null, ptr %18, align 8
  store i64 -1, ptr %19, align 8
  store i8 0, ptr %20, align 1
  store i8 0, ptr %21, align 1
  %22 = load i8, ptr @H5_libinit_g, align 1
  %23 = trunc i8 %22 to i1
  br i1 %23, label %28, label %24

24:                                               ; preds = %8
  %25 = load i8, ptr @H5_libterm_g, align 1
  %26 = trunc i8 %25 to i1
  %27 = xor i1 %26, true
  br label %28

28:                                               ; preds = %24, %8
  %29 = phi i1 [ false, %8 ], [ %27, %24 ]
  %30 = xor i1 %29, true
  %31 = xor i1 %30, true
  %32 = zext i1 %31 to i32
  %33 = sext i32 %32 to i64
  %34 = icmp ne i64 %33, 0
  br i1 %34, label %35, label %59

35:                                               ; preds = %28
  %36 = call i32 @H5_init_library()
  %37 = icmp slt i32 %36, 0
  %38 = xor i1 %37, true
  %39 = xor i1 %38, true
  %40 = zext i1 %39 to i32
  %41 = sext i32 %40 to i64
  %42 = icmp ne i64 %41, 0
  br i1 %42, label %43, label %58

43:                                               ; preds = %35
  br label %44

44:                                               ; preds = %43
  br label %45

45:                                               ; preds = %44
  br label %46

46:                                               ; preds = %45
  %47 = load i64, ptr @H5E_FUNC_g, align 8
  %48 = load i64, ptr @H5E_CANTINIT_g, align 8
  %49 = call i32 (ptr, ptr, i32, i64, i64, ptr, ...) @H5E_printf_stack(ptr noundef @.str, ptr noundef @__func__.H5Pcreate_class, i32 noundef 169, i64 noundef %47, i64 noundef %48, ptr noundef @.str.1)
  br label %50

50:                                               ; preds = %46
  store i8 1, ptr %21, align 1
  %51 = load i8, ptr %21, align 1
  %52 = trunc i8 %51 to i1
  %53 = zext i1 %52 to i8
  store i8 %53, ptr %21, align 1
  br label %54

54:                                               ; preds = %50
  br label %55

55:                                               ; preds = %54
  store i64 -1, ptr %19, align 8
  br label %231

56:                                               ; No predecessors!
  br label %57

57:                                               ; preds = %56
  br label %58

58:                                               ; preds = %57, %35
  br label %59

59:                                               ; preds = %58, %28
  %60 = call i32 @H5CX_push()
  %61 = icmp slt i32 %60, 0
  %62 = xor i1 %61, true
  %63 = xor i1 %62, true
  %64 = zext i1 %63 to i32
  %65 = sext i32 %64 to i64
  %66 = icmp ne i64 %65, 0
  br i1 %66, label %67, label %82

67:                                               ; preds = %59
  br label %68

68:                                               ; preds = %67
  br label %69

69:                                               ; preds = %68
  br label %70

70:                                               ; preds = %69
  %71 = load i64, ptr @H5E_FUNC_g, align 8
  %72 = load i64, ptr @H5E_CANTSET_g, align 8
  %73 = call i32 (ptr, ptr, i32, i64, i64, ptr, ...) @H5E_printf_stack(ptr noundef @.str, ptr noundef @__func__.H5Pcreate_class, i32 noundef 169, i64 noundef %71, i64 noundef %72, ptr noundef @.str.2)
  br label %74

74:                                               ; preds = %70
  store i8 1, ptr %21, align 1
  %75 = load i8, ptr %21, align 1
  %76 = trunc i8 %75 to i1
  %77 = zext i1 %76 to i8
  store i8 %77, ptr %21, align 1
  br label %78

78:                                               ; preds = %74
  br label %79

79:                                               ; preds = %78
  store i64 -1, ptr %19, align 8
  br label %231

80:                                               ; No predecessors!
  br label %81

81:                                               ; preds = %80
  br label %83

82:                                               ; preds = %59
  store i8 1, ptr %20, align 1
  br label %83

83:                                               ; preds = %82, %81
  %84 = call i32 @H5E_clear_stack()
  %85 = load i64, ptr %9, align 8
  %86 = icmp ne i64 0, %85
  br i1 %86, label %87, label %106

87:                                               ; preds = %83
  %88 = load i64, ptr %9, align 8
  %89 = call i32 @H5I_get_type(i64 noundef %88)
  %90 = icmp ne i32 10, %89
  br i1 %90, label %91, label %106

91:                                               ; preds = %87
  br label %92

92:                                               ; preds = %91
  br label %93

93:                                               ; preds = %92
  br label %94

94:                                               ; preds = %93
  %95 = load i64, ptr @H5E_ARGS_g, align 8
  %96 = load i64, ptr @H5E_BADTYPE_g, align 8
  %97 = call i32 (ptr, ptr, i32, i64, i64, ptr, ...) @H5E_printf_stack(ptr noundef @.str, ptr noundef @__func__.H5Pcreate_class, i32 noundef 173, i64 noundef %95, i64 noundef %96, ptr noundef @.str.8)
  br label %98

98:                                               ; preds = %94
  store i8 1, ptr %21, align 1
  %99 = load i8, ptr %21, align 1
  %100 = trunc i8 %99 to i1
  %101 = zext i1 %100 to i8
  store i8 %101, ptr %21, align 1
  br label %102

102:                                              ; preds = %98
  br label %103

103:                                              ; preds = %102
  store i64 -1, ptr %19, align 8
  br label %231

104:                                              ; No predecessors!
  br label %105

105:                                              ; preds = %104
  br label %106

106:                                              ; preds = %105, %87, %83
  %107 = load ptr, ptr %10, align 8
  %108 = icmp ne ptr %107, null
  br i1 %108, label %109, label %113

109:                                              ; preds = %106
  %110 = load ptr, ptr %10, align 8
  %111 = load i8, ptr %110, align 1
  %112 = icmp ne i8 %111, 0
  br i1 %112, label %128, label %113

113:                                              ; preds = %109, %106
  br label %114

114:                                              ; preds = %113
  br label %115

115:                                              ; preds = %114
  br label %116

116:                                              ; preds = %115
  %117 = load i64, ptr @H5E_ARGS_g, align 8
  %118 = load i64, ptr @H5E_BADVALUE_g, align 8
  %119 = call i32 (ptr, ptr, i32, i64, i64, ptr, ...) @H5E_printf_stack(ptr noundef @.str, ptr noundef @__func__.H5Pcreate_class, i32 noundef 175, i64 noundef %117, i64 noundef %118, ptr noundef @.str.9)
  br label %120

120:                                              ; preds = %116
  store i8 1, ptr %21, align 1
  %121 = load i8, ptr %21, align 1
  %122 = trunc i8 %121 to i1
  %123 = zext i1 %122 to i8
  store i8 %123, ptr %21, align 1
  br label %124

124:                                              ; preds = %120
  br label %125

125:                                              ; preds = %124
  store i64 -1, ptr %19, align 8
  br label %231

126:                                              ; No predecessors!
  br label %127

127:                                              ; preds = %126
  br label %128

128:                                              ; preds = %127, %109
  %129 = load ptr, ptr %12, align 8
  %130 = icmp ne ptr %129, null
  br i1 %130, label %131, label %134

131:                                              ; preds = %128
  %132 = load ptr, ptr %11, align 8
  %133 = icmp eq ptr %132, null
  br i1 %133, label %146, label %134

134:                                              ; preds = %131, %128
  %135 = load ptr, ptr %14, align 8
  %136 = icmp ne ptr %135, null
  br i1 %136, label %137, label %140

137:                                              ; preds = %134
  %138 = load ptr, ptr %13, align 8
  %139 = icmp eq ptr %138, null
  br i1 %139, label %146, label %140

140:                                              ; preds = %137, %134
  %141 = load ptr, ptr %16, align 8
  %142 = icmp ne ptr %141, null
  br i1 %142, label %143, label %161

143:                                              ; preds = %140
  %144 = load ptr, ptr %15, align 8
  %145 = icmp eq ptr %144, null
  br i1 %145, label %146, label %161

146:                                              ; preds = %143, %137, %131
  br label %147

147:                                              ; preds = %146
  br label %148

148:                                              ; preds = %147
  br label %149

149:                                              ; preds = %148
  %150 = load i64, ptr @H5E_ARGS_g, align 8
  %151 = load i64, ptr @H5E_BADVALUE_g, align 8
  %152 = call i32 (ptr, ptr, i32, i64, i64, ptr, ...) @H5E_printf_stack(ptr noundef @.str, ptr noundef @__func__.H5Pcreate_class, i32 noundef 178, i64 noundef %150, i64 noundef %151, ptr noundef @.str.10)
  br label %153

153:                                              ; preds = %149
  store i8 1, ptr %21, align 1
  %154 = load i8, ptr %21, align 1
  %155 = trunc i8 %154 to i1
  %156 = zext i1 %155 to i8
  store i8 %156, ptr %21, align 1
  br label %157

157:                                              ; preds = %153
  br label %158

158:                                              ; preds = %157
  store i64 -1, ptr %19, align 8
  br label %231

159:                                              ; No predecessors!
  br label %160

160:                                              ; preds = %159
  br label %161

161:                                              ; preds = %160, %143, %140
  %162 = load i64, ptr %9, align 8
  %163 = icmp eq i64 %162, 0
  br i1 %163, label %164, label %165

164:                                              ; preds = %161
  store ptr null, ptr %17, align 8
  br label %185

165:                                              ; preds = %161
  %166 = load i64, ptr %9, align 8
  %167 = call ptr @H5I_object(i64 noundef %166)
  store ptr %167, ptr %17, align 8
  %168 = icmp eq ptr null, %167
  br i1 %168, label %169, label %184

169:                                              ; preds = %165
  br label %170

170:                                              ; preds = %169
  br label %171

171:                                              ; preds = %170
  br label %172

172:                                              ; preds = %171
  %173 = load i64, ptr @H5E_ARGS_g, align 8
  %174 = load i64, ptr @H5E_BADTYPE_g, align 8
  %175 = call i32 (ptr, ptr, i32, i64, i64, ptr, ...) @H5E_printf_stack(ptr noundef @.str, ptr noundef @__func__.H5Pcreate_class, i32 noundef 184, i64 noundef %173, i64 noundef %174, ptr noundef @.str.11)
  br label %176

176:                                              ; preds = %172
  store i8 1, ptr %21, align 1
  %177 = load i8, ptr %21, align 1
  %178 = trunc i8 %177 to i1
  %179 = zext i1 %178 to i8
  store i8 %179, ptr %21, align 1
  br label %180

180:                                              ; preds = %176
  br label %181

181:                                              ; preds = %180
  store i64 -1, ptr %19, align 8
  br label %231

182:                                              ; No predecessors!
  br label %183

183:                                              ; preds = %182
  br label %184

184:                                              ; preds = %183, %165
  br label %185

185:                                              ; preds = %184, %164
  %186 = load ptr, ptr %17, align 8
  %187 = load ptr, ptr %10, align 8
  %188 = load ptr, ptr %11, align 8
  %189 = load ptr, ptr %12, align 8
  %190 = load ptr, ptr %13, align 8
  %191 = load ptr, ptr %14, align 8
  %192 = load ptr, ptr %15, align 8
  %193 = load ptr, ptr %16, align 8
  %194 = call ptr @H5P__create_class(ptr noundef %186, ptr noundef %187, i32 noundef 0, ptr noundef %188, ptr noundef %189, ptr noundef %190, ptr noundef %191, ptr noundef %192, ptr noundef %193)
  store ptr %194, ptr %18, align 8
  %195 = icmp eq ptr null, %194
  br i1 %195, label %196, label %211

196:                                              ; preds = %185
  br label %197

197:                                              ; preds = %196
  br label %198

198:                                              ; preds = %197
  br label %199

199:                                              ; preds = %198
  %200 = load i64, ptr @H5E_PLIST_g, align 8
  %201 = load i64, ptr @H5E_CANTCREATE_g, align 8
  %202 = call i32 (ptr, ptr, i32, i64, i64, ptr, ...) @H5E_printf_stack(ptr noundef @.str, ptr noundef @__func__.H5Pcreate_class, i32 noundef 189, i64 noundef %200, i64 noundef %201, ptr noundef @.str.12)
  br label %203

203:                                              ; preds = %199
  store i8 1, ptr %21, align 1
  %204 = load i8, ptr %21, align 1
  %205 = trunc i8 %204 to i1
  %206 = zext i1 %205 to i8
  store i8 %206, ptr %21, align 1
  br label %207

207:                                              ; preds = %203
  br label %208

208:                                              ; preds = %207
  store i64 -1, ptr %19, align 8
  br label %231

209:                                              ; No predecessors!
  br label %210

210:                                              ; preds = %209
  br label %211

211:                                              ; preds = %210, %185
  %212 = load ptr, ptr %18, align 8
  %213 = call i64 @H5I_register(i32 noundef 10, ptr noundef %212, i1 noundef zeroext true)
  store i64 %213, ptr %19, align 8
  %214 = icmp slt i64 %213, 0
  br i1 %214, label %215, label %230

215:                                              ; preds = %211
  br label %216

216:                                              ; preds = %215
  br label %217

217:                                              ; preds = %216
  br label %218

218:                                              ; preds = %217
  %219 = load i64, ptr @H5E_PLIST_g, align 8
  %220 = load i64, ptr @H5E_CANTREGISTER_g, align 8
  %221 = call i32 (ptr, ptr, i32, i64, i64, ptr, ...) @H5E_printf_stack(ptr noundef @.str, ptr noundef @__func__.H5Pcreate_class, i32 noundef 193, i64 noundef %219, i64 noundef %220, ptr noundef @.str.7)
  br label %222

222:                                              ; preds = %218
  store i8 1, ptr %21, align 1
  %223 = load i8, ptr %21, align 1
  %224 = trunc i8 %223 to i1
  %225 = zext i1 %224 to i8
  store i8 %225, ptr %21, align 1
  br label %226

226:                                              ; preds = %222
  br label %227

227:                                              ; preds = %226
  store i64 -1, ptr %19, align 8
  br label %231

228:                                              ; No predecessors!
  br label %229

229:                                              ; preds = %228
  br label %230

230:                                              ; preds = %229, %211
  br label %231

231:                                              ; preds = %230, %227, %208, %181, %158, %125, %103, %79, %55
  %232 = load i64, ptr %19, align 8
  %233 = icmp eq i64 -1, %232
  br i1 %233, label %234, label %240

234:                                              ; preds = %231
  %235 = load ptr, ptr %18, align 8
  %236 = icmp ne ptr %235, null
  br i1 %236, label %237, label %240

237:                                              ; preds = %234
  %238 = load ptr, ptr %18, align 8
  %239 = call i32 @H5P__close_class(ptr noundef %238)
  br label %240

240:                                              ; preds = %237, %234, %231
  %241 = load i8, ptr %20, align 1
  %242 = trunc i8 %241 to i1
  %243 = xor i1 %242, true
  %244 = xor i1 %243, true
  %245 = zext i1 %244 to i32
  %246 = sext i32 %245 to i64
  %247 = icmp ne i64 %246, 0
  br i1 %247, label %248, label %250

248:                                              ; preds = %240
  %249 = call i32 @H5CX_pop(i1 noundef zeroext true)
  store i8 0, ptr %20, align 1
  br label %250

250:                                              ; preds = %248, %240
  %251 = load i8, ptr %21, align 1
  %252 = trunc i8 %251 to i1
  %253 = xor i1 %252, true
  %254 = xor i1 %253, true
  %255 = zext i1 %254 to i32
  %256 = sext i32 %255 to i64
  %257 = icmp ne i64 %256, 0
  br i1 %257, label %258, label %260

258:                                              ; preds = %250
  %259 = call i32 @H5E_dump_api_stack()
  br label %260

260:                                              ; preds = %258, %250
  %261 = load i64, ptr %19, align 8
  ret i64 %261
}