; Function Attrs: nounwind uwtable
define range(i64 -1, -9223372036854775808) i64 @H5Pcreate_class(i64 noundef %0, ptr noundef %1, ptr noundef %2, ptr noundef %3, ptr noundef %4, ptr noundef %5, ptr noundef %6, ptr noundef %7) local_unnamed_addr #0 {
  %9 = load i8, ptr @H5_libinit_g, align 1
  %10 = trunc i8 %9 to i1
  %11 = load i8, ptr @H5_libterm_g, align 1
  %12 = trunc i8 %11 to i1
  %13 = select i1 %10, i1 true, i1 %12
  br i1 %13, label %21, label %14

14:                                               ; preds = %8
  %15 = tail call i32 @H5_init_library() #2
  %16 = icmp slt i32 %15, 0
  br i1 %16, label %17, label %21

17:                                               ; preds = %14
  %18 = load i64, ptr @H5E_FUNC_g, align 8
  %19 = load i64, ptr @H5E_CANTINIT_g, align 8
  %20 = tail call i32 (ptr, ptr, i32, i64, i64, ptr, ...) @H5E_printf_stack(ptr noundef nonnull @.str, ptr noundef nonnull @__func__.H5Pcreate_class, i32 noundef 169, i64 noundef %18, i64 noundef %19, ptr noundef nonnull @.str.1) #2
  br label %.thread77

21:                                               ; preds = %14, %8
  %22 = tail call i32 @H5CX_push() #2
  %23 = icmp slt i32 %22, 0
  br i1 %23, label %24, label %28

24:                                               ; preds = %21
  %25 = load i64, ptr @H5E_FUNC_g, align 8
  %26 = load i64, ptr @H5E_CANTSET_g, align 8
  %27 = tail call i32 (ptr, ptr, i32, i64, i64, ptr, ...) @H5E_printf_stack(ptr noundef nonnull @.str, ptr noundef nonnull @__func__.H5Pcreate_class, i32 noundef 169, i64 noundef %25, i64 noundef %26, ptr noundef nonnull @.str.2) #2
  br label %.thread77

28:                                               ; preds = %21
  %29 = tail call i32 @H5E_clear_stack() #2
  %.not = icmp eq i64 %0, 0
  br i1 %.not, label %36, label %30

30:                                               ; preds = %28
  %31 = tail call i32 @H5I_get_type(i64 noundef %0) #2
  %.not51 = icmp eq i32 %31, 10
  br i1 %.not51, label %36, label %32

32:                                               ; preds = %30
  %33 = load i64, ptr @H5E_ARGS_g, align 8
  %34 = load i64, ptr @H5E_BADTYPE_g, align 8
  %35 = tail call i32 (ptr, ptr, i32, i64, i64, ptr, ...) @H5E_printf_stack(ptr noundef nonnull @.str, ptr noundef nonnull @__func__.H5Pcreate_class, i32 noundef 173, i64 noundef %33, i64 noundef %34, ptr noundef nonnull @.str.8) #2
  br label %.thread86

36:                                               ; preds = %30, %28
  %.not52 = icmp eq ptr %1, null
  br i1 %.not52, label %39, label %37

37:                                               ; preds = %36
  %38 = load i8, ptr %1, align 1
  %.not53 = icmp eq i8 %38, 0
  br i1 %.not53, label %39, label %43

39:                                               ; preds = %36, %37
  %40 = load i64, ptr @H5E_ARGS_g, align 8
  %41 = load i64, ptr @H5E_BADVALUE_g, align 8
  %42 = tail call i32 (ptr, ptr, i32, i64, i64, ptr, ...) @H5E_printf_stack(ptr noundef nonnull @.str, ptr noundef nonnull @__func__.H5Pcreate_class, i32 noundef 175, i64 noundef %40, i64 noundef %41, ptr noundef nonnull @.str.9) #2
  br label %.thread86

43:                                               ; preds = %37
  %44 = icmp ne ptr %3, null
  %45 = icmp eq ptr %2, null
  %or.cond = and i1 %45, %44
  br i1 %or.cond, label %52, label %46

46:                                               ; preds = %43
  %47 = icmp ne ptr %5, null
  %48 = icmp eq ptr %4, null
  %or.cond3 = and i1 %48, %47
  br i1 %or.cond3, label %52, label %49

49:                                               ; preds = %46
  %50 = icmp ne ptr %7, null
  %51 = icmp eq ptr %6, null
  %or.cond5 = and i1 %51, %50
  br i1 %or.cond5, label %52, label %56

52:                                               ; preds = %43, %46, %49
  %53 = load i64, ptr @H5E_ARGS_g, align 8
  %54 = load i64, ptr @H5E_BADVALUE_g, align 8
  %55 = tail call i32 (ptr, ptr, i32, i64, i64, ptr, ...) @H5E_printf_stack(ptr noundef nonnull @.str, ptr noundef nonnull @__func__.H5Pcreate_class, i32 noundef 178, i64 noundef %53, i64 noundef %54, ptr noundef nonnull @.str.10) #2
  br label %.thread86

56:                                               ; preds = %49
  br i1 %.not, label %64, label %57

57:                                               ; preds = %56
  %58 = tail call ptr @H5I_object(i64 noundef %0) #2
  %59 = icmp eq ptr %58, null
  br i1 %59, label %60, label %64

60:                                               ; preds = %57
  %61 = load i64, ptr @H5E_ARGS_g, align 8
  %62 = load i64, ptr @H5E_BADTYPE_g, align 8
  %63 = tail call i32 (ptr, ptr, i32, i64, i64, ptr, ...) @H5E_printf_stack(ptr noundef nonnull @.str, ptr noundef nonnull @__func__.H5Pcreate_class, i32 noundef 184, i64 noundef %61, i64 noundef %62, ptr noundef nonnull @.str.11) #2
  br label %.thread86

64:                                               ; preds = %56, %57
  %.044 = phi ptr [ %58, %57 ], [ null, %56 ]
  %65 = tail call ptr @H5P__create_class(ptr noundef %.044, ptr noundef nonnull %1, i32 noundef 0, ptr noundef %2, ptr noundef %3, ptr noundef %4, ptr noundef %5, ptr noundef %6, ptr noundef %7) #2
  %66 = icmp eq ptr %65, null
  br i1 %66, label %67, label %71

67:                                               ; preds = %64
  %68 = load i64, ptr @H5E_PLIST_g, align 8
  %69 = load i64, ptr @H5E_CANTCREATE_g, align 8
  %70 = tail call i32 (ptr, ptr, i32, i64, i64, ptr, ...) @H5E_printf_stack(ptr noundef nonnull @.str, ptr noundef nonnull @__func__.H5Pcreate_class, i32 noundef 189, i64 noundef %68, i64 noundef %69, ptr noundef nonnull @.str.12) #2
  br label %.thread86

71:                                               ; preds = %64
  %72 = tail call i64 @H5I_register(i32 noundef 10, ptr noundef nonnull %65, i1 noundef zeroext true) #2
  %73 = icmp slt i64 %72, 0
  br i1 %73, label %.thread82, label %80

.thread82:                                        ; preds = %71
  %74 = load i64, ptr @H5E_PLIST_g, align 8
  %75 = load i64, ptr @H5E_CANTREGISTER_g, align 8
  %76 = tail call i32 (ptr, ptr, i32, i64, i64, ptr, ...) @H5E_printf_stack(ptr noundef nonnull @.str, ptr noundef nonnull @__func__.H5Pcreate_class, i32 noundef 193, i64 noundef %74, i64 noundef %75, ptr noundef nonnull @.str.7) #2
  %77 = tail call i32 @H5P__close_class(ptr noundef nonnull %65) #2
  %78 = tail call i32 @H5CX_pop(i1 noundef zeroext true) #2
  br label %.thread77

.thread86:                                        ; preds = %32, %52, %67, %60, %39
  %79 = tail call i32 @H5CX_pop(i1 noundef zeroext true) #2
  br label %.thread77

80:                                               ; preds = %71
  %81 = tail call i32 @H5CX_pop(i1 noundef zeroext true) #2
  br label %83

.thread77:                                        ; preds = %17, %24, %.thread86, %.thread82
  %82 = tail call i32 @H5E_dump_api_stack() #2
  br label %83

83:                                               ; preds = %80, %.thread77
  %.042596980 = phi i64 [ -1, %.thread77 ], [ %72, %80 ]
  ret i64 %.042596980
}